target datalayout = "e-m:e-p270:32:32-p271:32:32-p272:64:64-i64:64-i128:128-f80:128-n8:16:32:64-S128"
target triple = "x86_64-pc-linux-gnu"

%struct.ansi_a_shared_data_t = type { ptr, ptr, ptr, i8, i8, %struct._address, i32, %struct.e_in6_addr, i16, i8 }
%struct._address = type { i32, i32, ptr, ptr }
%struct.e_in6_addr = type { [16 x i8] }

@.str.270 = private unnamed_addr constant [8 x i8] c"Unknown\00", align 1
@hf_ansi_a_reserved_bits_8_fc = internal global i32 0, align 4
@hf_ansi_a_signal_signal_value = internal global i32 0, align 4
@hf_ansi_a_signal_alert_pitch = internal global i32 0, align 4
@.str.1006 = private unnamed_addr constant [8 x i8] c" - (%s)\00", align 1

; Function Attrs: null_pointer_is_valid sspstrong uwtable
define internal zeroext i8 @elem_signal(ptr noundef %0, ptr noundef %1, ptr noundef %2, i32 noundef %3, i32 noundef %4, ptr noundef %5) #1 {
  %7 = alloca ptr, align 8
  %8 = alloca ptr, align 8
  %9 = alloca ptr, align 8
  %10 = alloca i32, align 4
  %11 = alloca i32, align 4
  %12 = alloca ptr, align 8
  %13 = alloca i8, align 1
  %14 = alloca i32, align 4
  %15 = alloca ptr, align 8
  store ptr %0, ptr %7, align 8
  store ptr %1, ptr %8, align 8
  store ptr %2, ptr %9, align 8
  store i32 %3, ptr %10, align 4
  store i32 %4, ptr %11, align 4
  store ptr %5, ptr %12, align 8
  call void @llvm.lifetime.start.p0(i64 1, ptr %13) #8
  call void @llvm.lifetime.start.p0(i64 4, ptr %14) #8
  call void @llvm.lifetime.start.p0(i64 8, ptr %15) #8
  %16 = load i32, ptr %10, align 4
  store i32 %16, ptr %14, align 4
  %17 = load ptr, ptr %7, align 8
  %18 = load i32, ptr %14, align 4
  %19 = call zeroext i8 @tvb_get_uint8(ptr noundef %17, i32 noundef %18)
  store i8 %19, ptr %13, align 1
  %20 = load i8, ptr %13, align 1
  %21 = zext i8 %20 to i32
  %22 = call ptr @val_to_str_const(i32 noundef %21, ptr noundef @ansi_a_signal_signal_vals, ptr noundef @.str.270)
  store ptr %22, ptr %15, align 8
  %23 = load ptr, ptr %9, align 8
  %24 = load i32, ptr @hf_ansi_a_signal_signal_value, align 4
  %25 = load ptr, ptr %7, align 8
  %26 = load i32, ptr %14, align 4
  %27 = call ptr @proto_tree_add_item(ptr noundef %23, i32 noundef %24, ptr noundef %25, i32 noundef %26, i32 noundef 1, i32 noundef 0)
  %28 = load ptr, ptr %12, align 8
  %29 = getelementptr inbounds nuw %struct.ansi_a_shared_data_t, ptr %28, i32 0, i32 2
  %30 = load ptr, ptr %29, align 8
  %31 = load ptr, ptr %15, align 8
  call void (ptr, ptr, ...) @proto_item_append_text(ptr noundef %30, ptr noundef @.str.1006, ptr noundef %31)
  %32 = load i32, ptr %14, align 4
  %33 = add i32 %32, 1
  store i32 %33, ptr %14, align 4
  %34 = load ptr, ptr %9, align 8
  %35 = load i32, ptr @hf_ansi_a_reserved_bits_8_fc, align 4
  %36 = load ptr, ptr %7, align 8
  %37 = load i32, ptr %14, align 4
  %38 = call ptr @proto_tree_add_item(ptr noundef %34, i32 noundef %35, ptr noundef %36, i32 noundef %37, i32 noundef 1, i32 noundef 0)
  %39 = load ptr, ptr %9, align 8
  %40 = load i32, ptr @hf_ansi_a_signal_alert_pitch, align 4
  %41 = load ptr, ptr %7, align 8
  %42 = load i32, ptr %14, align 4
  %43 = call ptr @proto_tree_add_item(ptr noundef %39, i32 noundef %40, ptr noundef %41, i32 noundef %42, i32 noundef 1, i32 noundef 0)
  %44 = load i32, ptr %14, align 4
  %45 = add i32 %44, 1
  store i32 %45, ptr %14, align 4
  %46 = load i32, ptr %14, align 4
  %47 = load i32, ptr %10, align 4
  %48 = sub i32 %46, %47
  %49 = trunc i32 %48 to i8
  call void @llvm.lifetime.end.p0(i64 8, ptr %15) #8
  call void @llvm.lifetime.end.p0(i64 4, ptr %14) #8
  call void @llvm.lifetime.end.p0(i64 1, ptr %13) #8
  ret i8 %49
}