; Function Attrs: null_pointer_is_valid sspstrong uwtable
define internal noundef zeroext i8 @elem_signal(ptr noundef %0, ptr readnone captures(none) %1, ptr noundef %2, i32 noundef %3, i32 %4, ptr noundef readonly captures(none) %5) #1 {
  %7 = tail call zeroext i8 @tvb_get_uint8(ptr noundef %0, i32 noundef %3)
  %8 = zext i8 %7 to i32
  %9 = tail call ptr @val_to_str_const(i32 noundef %8, ptr noundef nonnull @ansi_a_signal_signal_vals, ptr noundef nonnull @.str.270)
  %10 = load i32, ptr @hf_ansi_a_signal_signal_value, align 4
  %11 = tail call ptr @proto_tree_add_item(ptr noundef %2, i32 noundef %10, ptr noundef %0, i32 noundef %3, i32 noundef 1, i32 noundef 0)
  %12 = getelementptr inbounds nuw i8, ptr %5, i64 16
  %13 = load ptr, ptr %12, align 8
  tail call void (ptr, ptr, ...) @proto_item_append_text(ptr noundef %13, ptr noundef nonnull @.str.1006, ptr noundef %9)
  %14 = add i32 %3, 1
  %15 = load i32, ptr @hf_ansi_a_reserved_bits_8_fc, align 4
  %16 = tail call ptr @proto_tree_add_item(ptr noundef %2, i32 noundef %15, ptr noundef %0, i32 noundef %14, i32 noundef 1, i32 noundef 0)
  %17 = load i32, ptr @hf_ansi_a_signal_alert_pitch, align 4
  %18 = tail call ptr @proto_tree_add_item(ptr noundef %2, i32 noundef %17, ptr noundef %0, i32 noundef %14, i32 noundef 1, i32 noundef 0)
  ret i8 2
}